; Function Attrs: mustprogress uwtable
define internal fastcc void @_ZN32pxrInternal_v0_24__pxrReserved__12_GLOBAL__N_120_Convert4dXformsTo4fERKNS_7VtArrayINS_10GfMatrix4dEEEPNS1_INS_10GfMatrix4fEEE(ptr noundef nonnull align 8 dereferenceable(40) %0, ptr noundef %1) unnamed_addr #0 {
  %3 = alloca %"class.pxrInternal_v0_24__pxrReserved__::GfMatrix4f", align 4
  %4 = tail call noundef i64 @_ZNK32pxrInternal_v0_24__pxrReserved__7VtArrayINS_10GfMatrix4dEE4sizeEv(ptr noundef nonnull align 8 dereferenceable(40) %0)
  tail call void @_ZN32pxrInternal_v0_24__pxrReserved__7VtArrayINS_10GfMatrix4fEE6resizeEm(ptr noundef nonnull align 8 dereferenceable(40) %1, i64 noundef %4)
  %5 = tail call noundef ptr @_ZN32pxrInternal_v0_24__pxrReserved__7VtArrayINS_10GfMatrix4fEE4dataEv(ptr noundef nonnull align 8 dereferenceable(40) %1)
  %6 = tail call noundef i64 @_ZNK32pxrInternal_v0_24__pxrReserved__7VtArrayINS_10GfMatrix4dEE4sizeEv(ptr noundef nonnull align 8 dereferenceable(40) %0)
  %.not = icmp eq i64 %6, 0
  br i1 %.not, label %._crit_edge, label %.lr.ph

.lr.ph:                                           ; preds = %2, %.lr.ph
  %.09 = phi i64 [ %9, %.lr.ph ], [ 0, %2 ]
  %7 = call noundef nonnull align 8 dereferenceable(128) ptr @_ZNK32pxrInternal_v0_24__pxrReserved__7VtArrayINS_10GfMatrix4dEEixEm(ptr noundef nonnull align 8 dereferenceable(40) %0, i64 noundef %.09)
  call void @_ZN32pxrInternal_v0_24__pxrReserved__10GfMatrix4fC1ERKNS_10GfMatrix4dE(ptr noundef nonnull align 4 dereferenceable(64) %3, ptr noundef nonnull align 8 dereferenceable(128) %7)
  %8 = getelementptr inbounds %"class.pxrInternal_v0_24__pxrReserved__::GfMatrix4f", ptr %5, i64 %.09
  call void @llvm.memcpy.p0.p0.i64(ptr noundef nonnull align 4 dereferenceable(64) %8, ptr noundef nonnull align 4 dereferenceable(64) %3, i64 64, i1 false)
  %9 = add nuw i64 %.09, 1
  %10 = call noundef i64 @_ZNK32pxrInternal_v0_24__pxrReserved__7VtArrayINS_10GfMatrix4dEE4sizeEv(ptr noundef nonnull align 8 dereferenceable(40) %0)
  %11 = icmp ult i64 %9, %10
  br i1 %11, label %.lr.ph, label %._crit_edge, !llvm.loop !18

._crit_edge:                                      ; preds = %.lr.ph, %2
  ret void
}